target datalayout = "e-m:e-p270:32:32-p271:32:32-p272:64:64-i64:64-i128:128-f80:128-n8:16:32:64-S128"
target triple = "x86_64-pc-linux-gnu"

%struct.AsterixField_s = type { i8, i32, i32, i32, ptr, ptr, [0 x ptr] }

; Function Attrs: nounwind uwtable
define internal zeroext i8 @asterix_bit(i8 noundef zeroext %0, i8 noundef zeroext %1) #0 {
  %3 = alloca i8, align 1
  %4 = alloca i8, align 1
  store i8 %0, ptr %3, align 1
  store i8 %1, ptr %4, align 1
  %5 = load i8, ptr %4, align 1
  %6 = zext i8 %5 to i32
  %7 = icmp slt i32 %6, 8
  br i1 %7, label %8, label %16

8:                                                ; preds = %2
  %9 = load i8, ptr %3, align 1
  %10 = zext i8 %9 to i32
  %11 = load i8, ptr %4, align 1
  %12 = zext i8 %11 to i32
  %13 = ashr i32 128, %12
  %14 = and i32 %10, %13
  %15 = icmp sgt i32 %14, 0
  br label %16

16:                                               ; preds = %8, %2
  %17 = phi i1 [ false, %2 ], [ %15, %8 ]
  %18 = zext i1 %17 to i32
  %19 = trunc i32 %18 to i8
  ret i8 %19
}

; Function Attrs: nounwind uwtable
define internal zeroext i8 @asterix_field_exists(ptr noundef %0, i32 noundef %1, i32 noundef %2) #0 {
  %4 = alloca i8, align 1
  %5 = alloca ptr, align 8
  %6 = alloca i32, align 4
  %7 = alloca i32, align 4
  %8 = alloca i8, align 1
  %9 = alloca i8, align 1
  store ptr %0, ptr %5, align 8
  store i32 %1, ptr %6, align 4
  store i32 %2, ptr %7, align 4
  %10 = load i32, ptr %7, align 4
  %11 = load i32, ptr %7, align 4
  %12 = sdiv i32 %11, 7
  %13 = add i32 %10, %12
  %14 = trunc i32 %13 to i8
  store i8 %14, ptr %8, align 1
  store i8 0, ptr %9, align 1
  br label %15

15:                                               ; preds = %34, %3
  %16 = load i8, ptr %9, align 1
  %17 = zext i8 %16 to i32
  %18 = load i8, ptr %8, align 1
  %19 = zext i8 %18 to i32
  %20 = sdiv i32 %19, 8
  %21 = icmp slt i32 %17, %20
  br i1 %21, label %22, label %37

22:                                               ; preds = %15
  %23 = load ptr, ptr %5, align 8
  %24 = load i32, ptr %6, align 4
  %25 = load i8, ptr %9, align 1
  %26 = zext i8 %25 to i32
  %27 = add i32 %24, %26
  %28 = call zeroext i8 @tvb_get_guint8(ptr noundef %23, i32 noundef %27)
  %29 = zext i8 %28 to i32
  %30 = and i32 %29, 1
  %31 = icmp ne i32 %30, 0
  br i1 %31, label %33, label %32

32:                                               ; preds = %22
  store i8 0, ptr %4, align 1
  br label %49

33:                                               ; preds = %22
  br label %34

34:                                               ; preds = %33
  %35 = load i8, ptr %9, align 1
  %36 = add i8 %35, 1
  store i8 %36, ptr %9, align 1
  br label %15, !llvm.loop !13

37:                                               ; preds = %15
  %38 = load ptr, ptr %5, align 8
  %39 = load i32, ptr %6, align 4
  %40 = load i8, ptr %9, align 1
  %41 = zext i8 %40 to i32
  %42 = add i32 %39, %41
  %43 = call zeroext i8 @tvb_get_guint8(ptr noundef %38, i32 noundef %42)
  %44 = load i8, ptr %8, align 1
  %45 = zext i8 %44 to i32
  %46 = srem i32 %45, 8
  %47 = trunc i32 %46 to i8
  %48 = call zeroext i8 @asterix_bit(i8 noundef zeroext %43, i8 noundef zeroext %47)
  store i8 %48, ptr %4, align 1
  br label %49

49:                                               ; preds = %37, %32
  %50 = load i8, ptr %4, align 1
  ret i8 %50
}

; Function Attrs: nounwind uwtable
define internal i32 @asterix_field_length(ptr noundef %0, i32 noundef %1, ptr noundef %2) #0 {
  %4 = alloca ptr, align 8
  %5 = alloca i32, align 4
  %6 = alloca ptr, align 8
  %7 = alloca i32, align 4
  %8 = alloca i64, align 8
  %9 = alloca i8, align 1
  store ptr %0, ptr %4, align 8
  store i32 %1, ptr %5, align 4
  store ptr %2, ptr %6, align 8
  store i32 0, ptr %7, align 4
  %10 = load ptr, ptr %6, align 8
  %11 = getelementptr inbounds %struct.AsterixField_s, ptr %10, i32 0, i32 0
  %12 = load i8, ptr %11, align 8
  %13 = zext i8 %12 to i32
  switch i32 %13, label %159 [
    i32 1, label %14
    i32 2, label %18
    i32 3, label %59
    i32 9, label %85
    i32 6, label %108
  ]

14:                                               ; preds = %3
  %15 = load ptr, ptr %6, align 8
  %16 = getelementptr inbounds %struct.AsterixField_s, ptr %15, i32 0, i32 1
  %17 = load i32, ptr %16, align 4
  store i32 %17, ptr %7, align 4
  br label %159

18:                                               ; preds = %3
  store i8 0, ptr %9, align 1
  store i64 0, ptr %8, align 8
  br label %19

19:                                               ; preds = %43, %18
  %20 = load i8, ptr %9, align 1
  %21 = zext i8 %20 to i32
  %22 = load ptr, ptr %6, align 8
  %23 = getelementptr inbounds %struct.AsterixField_s, ptr %22, i32 0, i32 2
  %24 = load i32, ptr %23, align 8
  %25 = icmp ult i32 %21, %24
  br i1 %25, label %26, label %30

26:                                               ; preds = %19
  %27 = load i8, ptr %9, align 1
  %28 = zext i8 %27 to i64
  %29 = icmp ult i64 %28, 8
  br label %30

30:                                               ; preds = %26, %19
  %31 = phi i1 [ false, %19 ], [ %29, %26 ]
  br i1 %31, label %32, label %46

32:                                               ; preds = %30
  %33 = load i64, ptr %8, align 8
  %34 = shl i64 %33, 8
  %35 = load ptr, ptr %4, align 8
  %36 = load i32, ptr %5, align 4
  %37 = load i8, ptr %9, align 1
  %38 = zext i8 %37 to i32
  %39 = add i32 %36, %38
  %40 = call zeroext i8 @tvb_get_guint8(ptr noundef %35, i32 noundef %39)
  %41 = zext i8 %40 to i64
  %42 = add i64 %34, %41
  store i64 %42, ptr %8, align 8
  br label %43

43:                                               ; preds = %32
  %44 = load i8, ptr %9, align 1
  %45 = add i8 %44, 1
  store i8 %45, ptr %9, align 1
  br label %19, !llvm.loop !14

46:                                               ; preds = %30
  %47 = load ptr, ptr %6, align 8
  %48 = getelementptr inbounds %struct.AsterixField_s, ptr %47, i32 0, i32 2
  %49 = load i32, ptr %48, align 8
  %50 = zext i32 %49 to i64
  %51 = load i64, ptr %8, align 8
  %52 = load ptr, ptr %6, align 8
  %53 = getelementptr inbounds %struct.AsterixField_s, ptr %52, i32 0, i32 1
  %54 = load i32, ptr %53, align 4
  %55 = zext i32 %54 to i64
  %56 = mul i64 %51, %55
  %57 = add i64 %50, %56
  %58 = trunc i64 %57 to i32
  store i32 %58, ptr %7, align 4
  br label %159

59:                                               ; preds = %3
  %60 = load ptr, ptr %6, align 8
  %61 = getelementptr inbounds %struct.AsterixField_s, ptr %60, i32 0, i32 1
  %62 = load i32, ptr %61, align 4
  %63 = load ptr, ptr %6, align 8
  %64 = getelementptr inbounds %struct.AsterixField_s, ptr %63, i32 0, i32 3
  %65 = load i32, ptr %64, align 4
  %66 = add i32 %62, %65
  store i32 %66, ptr %7, align 4
  br label %67

67:                                               ; preds = %78, %59
  %68 = load ptr, ptr %4, align 8
  %69 = load i32, ptr %5, align 4
  %70 = load i32, ptr %7, align 4
  %71 = add i32 %69, %70
  %72 = sub i32 %71, 1
  %73 = call zeroext i8 @tvb_get_guint8(ptr noundef %68, i32 noundef %72)
  %74 = zext i8 %73 to i32
  %75 = and i32 %74, 1
  %76 = icmp ne i32 %75, 0
  br i1 %76, label %77, label %84

77:                                               ; preds = %67
  br label %78

78:                                               ; preds = %77
  %79 = load ptr, ptr %6, align 8
  %80 = getelementptr inbounds %struct.AsterixField_s, ptr %79, i32 0, i32 1
  %81 = load i32, ptr %80, align 4
  %82 = load i32, ptr %7, align 4
  %83 = add i32 %82, %81
  store i32 %83, ptr %7, align 4
  br label %67, !llvm.loop !15

84:                                               ; preds = %67
  br label %159

85:                                               ; preds = %3
  store i8 0, ptr %9, align 1
  store i32 0, ptr %7, align 4
  br label %86

86:                                               ; preds = %104, %85
  %87 = load i8, ptr %9, align 1
  %88 = zext i8 %87 to i32
  %89 = load ptr, ptr %6, align 8
  %90 = getelementptr inbounds %struct.AsterixField_s, ptr %89, i32 0, i32 3
  %91 = load i32, ptr %90, align 4
  %92 = icmp ult i32 %88, %91
  br i1 %92, label %93, label %107

93:                                               ; preds = %86
  %94 = load i32, ptr %7, align 4
  %95 = shl i32 %94, 8
  %96 = load ptr, ptr %4, align 8
  %97 = load i32, ptr %5, align 4
  %98 = load i8, ptr %9, align 1
  %99 = zext i8 %98 to i32
  %100 = add i32 %97, %99
  %101 = call zeroext i8 @tvb_get_guint8(ptr noundef %96, i32 noundef %100)
  %102 = zext i8 %101 to i32
  %103 = add i32 %95, %102
  store i32 %103, ptr %7, align 4
  br label %104

104:                                              ; preds = %93
  %105 = load i8, ptr %9, align 1
  %106 = add i8 %105, 1
  store i8 %106, ptr %9, align 1
  br label %86, !llvm.loop !16

107:                                              ; preds = %86
  br label %159

108:                                              ; preds = %3
  store i32 0, ptr %7, align 4
  br label %109

109:                                              ; preds = %119, %108
  %110 = load ptr, ptr %4, align 8
  %111 = load i32, ptr %5, align 4
  %112 = load i32, ptr %7, align 4
  %113 = add i32 %111, %112
  %114 = call zeroext i8 @tvb_get_guint8(ptr noundef %110, i32 noundef %113)
  %115 = zext i8 %114 to i32
  %116 = and i32 %115, 1
  %117 = icmp ne i32 %116, 0
  br i1 %117, label %118, label %122

118:                                              ; preds = %109
  br label %119

119:                                              ; preds = %118
  %120 = load i32, ptr %7, align 4
  %121 = add i32 %120, 1
  store i32 %121, ptr %7, align 4
  br label %109, !llvm.loop !17

122:                                              ; preds = %109
  %123 = load i32, ptr %7, align 4
  %124 = add i32 %123, 1
  store i32 %124, ptr %7, align 4
  store i8 0, ptr %9, align 1
  br label %125

125:                                              ; preds = %155, %122
  %126 = load ptr, ptr %6, align 8
  %127 = getelementptr inbounds %struct.AsterixField_s, ptr %126, i32 0, i32 6
  %128 = load i8, ptr %9, align 1
  %129 = zext i8 %128 to i64
  %130 = getelementptr [0 x ptr], ptr %127, i64 0, i64 %129
  %131 = load ptr, ptr %130, align 8
  %132 = icmp ne ptr %131, null
  br i1 %132, label %133, label %158

133:                                              ; preds = %125
  %134 = load ptr, ptr %4, align 8
  %135 = load i32, ptr %5, align 4
  %136 = load i8, ptr %9, align 1
  %137 = zext i8 %136 to i32
  %138 = call zeroext i8 @asterix_field_exists(ptr noundef %134, i32 noundef %135, i32 noundef %137)
  %139 = icmp ne i8 %138, 0
  br i1 %139, label %140, label %154

140:                                              ; preds = %133
  %141 = load ptr, ptr %4, align 8
  %142 = load i32, ptr %5, align 4
  %143 = load i32, ptr %7, align 4
  %144 = add i32 %142, %143
  %145 = load ptr, ptr %6, align 8
  %146 = getelementptr inbounds %struct.AsterixField_s, ptr %145, i32 0, i32 6
  %147 = load i8, ptr %9, align 1
  %148 = zext i8 %147 to i64
  %149 = getelementptr [0 x ptr], ptr %146, i64 0, i64 %148
  %150 = load ptr, ptr %149, align 8
  %151 = call i32 @asterix_field_length(ptr noundef %141, i32 noundef %144, ptr noundef %150)
  %152 = load i32, ptr %7, align 4
  %153 = add i32 %152, %151
  store i32 %153, ptr %7, align 4
  br label %154

154:                                              ; preds = %140, %133
  br label %155

155:                                              ; preds = %154
  %156 = load i8, ptr %9, align 1
  %157 = add i8 %156, 1
  store i8 %157, ptr %9, align 1
  br label %125, !llvm.loop !18

158:                                              ; preds = %125
  br label %159

159:                                              ; preds = %158, %107, %84, %46, %14, %3
  %160 = load i32, ptr %7, align 4
  ret i32 %160
}