; Function Attrs: nounwind uwtable
define internal fastcc i32 @asterix_field_length(ptr noundef %0, i32 noundef %1, ptr noundef readonly captures(none) %2) unnamed_addr #0 {
  %4 = load i8, ptr %2, align 8
  switch i8 %4, label %.loopexit [
    i8 1, label %9
    i8 2, label %.preheader
    i8 3, label %25
    i8 9, label %.preheader56
    i8 6, label %.preheader59
  ]

.preheader56:                                     ; preds = %3
  %5 = getelementptr inbounds nuw i8, ptr %2, i64 12
  %6 = load i32, ptr %5, align 4
  %.not77 = icmp eq i32 %6, 0
  br i1 %.not77, label %.loopexit, label %.lr.ph66

.preheader:                                       ; preds = %3
  %7 = getelementptr inbounds nuw i8, ptr %2, i64 8
  %8 = load i32, ptr %7, align 8
  %.not78 = icmp eq i32 %8, 0
  br i1 %.not78, label %._crit_edge, label %.lr.ph74

9:                                                ; preds = %3
  %10 = getelementptr inbounds nuw i8, ptr %2, i64 4
  %11 = load i32, ptr %10, align 4
  br label %.loopexit

.lr.ph74:                                         ; preds = %.preheader, %.lr.ph74
  %indvars.iv87 = phi i32 [ %indvars.iv.next88, %.lr.ph74 ], [ 0, %.preheader ]
  %.04472 = phi i32 [ %16, %.lr.ph74 ], [ 0, %.preheader ]
  %12 = shl i32 %.04472, 8
  %13 = add i32 %indvars.iv87, %1
  %14 = tail call zeroext i8 @tvb_get_guint8(ptr noundef %0, i32 noundef %13) #3
  %15 = zext i8 %14 to i32
  %16 = or disjoint i32 %12, %15
  %indvars.iv.next88 = add nuw nsw i32 %indvars.iv87, 1
  %17 = load i32, ptr %7, align 8
  %18 = icmp ugt i32 %17, %indvars.iv.next88
  %19 = icmp samesign ult i32 %indvars.iv87, 7
  %20 = and i1 %19, %18
  br i1 %20, label %.lr.ph74, label %._crit_edge, !llvm.loop !15

._crit_edge:                                      ; preds = %.lr.ph74, %.preheader
  %.044.lcssa = phi i32 [ 0, %.preheader ], [ %16, %.lr.ph74 ]
  %.lcssa = phi i32 [ 0, %.preheader ], [ %17, %.lr.ph74 ]
  %21 = getelementptr inbounds nuw i8, ptr %2, i64 4
  %22 = load i32, ptr %21, align 4
  %23 = mul i32 %22, %.044.lcssa
  %24 = add i32 %23, %.lcssa
  br label %.loopexit

25:                                               ; preds = %3
  %26 = getelementptr inbounds nuw i8, ptr %2, i64 4
  %27 = load i32, ptr %26, align 4
  %28 = getelementptr inbounds nuw i8, ptr %2, i64 12
  %29 = load i32, ptr %28, align 4
  %30 = add i32 %29, %27
  %31 = add i32 %1, -1
  %32 = add i32 %31, %30
  %33 = tail call zeroext i8 @tvb_get_guint8(ptr noundef %0, i32 noundef %32) #3
  %34 = and i8 %33, 1
  %.not5268 = icmp eq i8 %34, 0
  br i1 %.not5268, label %.loopexit, label %.lr.ph70

.lr.ph70:                                         ; preds = %25, %.lr.ph70
  %.14669 = phi i32 [ %36, %.lr.ph70 ], [ %30, %25 ]
  %35 = load i32, ptr %26, align 4
  %36 = add i32 %35, %.14669
  %37 = add i32 %31, %36
  %38 = tail call zeroext i8 @tvb_get_guint8(ptr noundef %0, i32 noundef %37) #3
  %39 = and i8 %38, 1
  %.not52 = icmp eq i8 %39, 0
  br i1 %.not52, label %.loopexit, label %.lr.ph70, !llvm.loop !16

.lr.ph66:                                         ; preds = %.preheader56, %.lr.ph66
  %40 = phi i32 [ %47, %.lr.ph66 ], [ 0, %.preheader56 ]
  %.165 = phi i8 [ %46, %.lr.ph66 ], [ 0, %.preheader56 ]
  %.24764 = phi i32 [ %45, %.lr.ph66 ], [ 0, %.preheader56 ]
  %41 = shl i32 %.24764, 8
  %42 = add i32 %40, %1
  %43 = tail call zeroext i8 @tvb_get_guint8(ptr noundef %0, i32 noundef %42) #3
  %44 = zext i8 %43 to i32
  %45 = or disjoint i32 %41, %44
  %46 = add i8 %.165, 1
  %47 = zext i8 %46 to i32
  %48 = load i32, ptr %5, align 4
  %49 = icmp ugt i32 %48, %47
  br i1 %49, label %.lr.ph66, label %.loopexit, !llvm.loop !17

.preheader59:                                     ; preds = %3, %.preheader59
  %.3 = phi i32 [ %53, %.preheader59 ], [ 0, %3 ]
  %50 = add i32 %.3, %1
  %51 = tail call zeroext i8 @tvb_get_guint8(ptr noundef %0, i32 noundef %50) #3
  %52 = and i8 %51, 1
  %.not = icmp eq i8 %52, 0
  %53 = add i32 %.3, 1
  br i1 %.not, label %54, label %.preheader59, !llvm.loop !18

54:                                               ; preds = %.preheader59
  %55 = getelementptr inbounds nuw i8, ptr %2, i64 32
  %56 = load ptr, ptr %55, align 8
  %.not5061 = icmp eq ptr %56, null
  br i1 %.not5061, label %.loopexit, label %.lr.ph

.lr.ph:                                           ; preds = %54, %asterix_field_exists.exit.thread
  %57 = phi ptr [ %81, %asterix_field_exists.exit.thread ], [ %55, %54 ]
  %.263 = phi i8 [ %79, %asterix_field_exists.exit.thread ], [ 0, %54 ]
  %.462 = phi i32 [ %.5, %asterix_field_exists.exit.thread ], [ %53, %54 ]
  %58 = zext i8 %.263 to i32
  %59 = udiv i8 %.263, 7
  %.zext = zext nneg i8 %59 to i32
  %60 = add nuw nsw i32 %.zext, %58
  %61 = lshr i32 %60, 3
  %62 = and i32 %61, 31
  %.not16.i = icmp eq i32 %62, 0
  br i1 %.not16.i, label %asterix_field_exists.exit, label %.lr.ph.i

63:                                               ; preds = %.lr.ph.i
  %indvars.iv.next = add nuw nsw i32 %indvars.iv, 1
  %64 = icmp samesign ult i32 %indvars.iv.next, %62
  br i1 %64, label %.lr.ph.i, label %asterix_field_exists.exit, !llvm.loop !6

.lr.ph.i:                                         ; preds = %.lr.ph, %63
  %indvars.iv = phi i32 [ %indvars.iv.next, %63 ], [ 0, %.lr.ph ]
  %65 = add i32 %indvars.iv, %1
  %66 = tail call zeroext i8 @tvb_get_guint8(ptr noundef %0, i32 noundef %65) #3
  %67 = and i8 %66, 1
  %.not.i = icmp eq i8 %67, 0
  br i1 %.not.i, label %asterix_field_exists.exit.thread, label %63

asterix_field_exists.exit:                        ; preds = %63, %.lr.ph
  %.lcssa.i = phi i32 [ 0, %.lr.ph ], [ %indvars.iv.next, %63 ]
  %68 = add i32 %.lcssa.i, %1
  %69 = tail call zeroext i8 @tvb_get_guint8(ptr noundef %0, i32 noundef %68) #3
  %70 = and i32 %60, 7
  %71 = lshr exact i32 128, %70
  %72 = zext i8 %69 to i32
  %73 = and i32 %71, %72
  %.not55 = icmp eq i32 %73, 0
  br i1 %.not55, label %asterix_field_exists.exit.thread, label %74

74:                                               ; preds = %asterix_field_exists.exit
  %75 = add i32 %.462, %1
  %76 = load ptr, ptr %57, align 8
  %77 = tail call fastcc i32 @asterix_field_length(ptr noundef %0, i32 noundef %75, ptr noundef %76)
  %78 = add i32 %77, %.462
  br label %asterix_field_exists.exit.thread

asterix_field_exists.exit.thread:                 ; preds = %.lr.ph.i, %asterix_field_exists.exit, %74
  %.5 = phi i32 [ %78, %74 ], [ %.462, %asterix_field_exists.exit ], [ %.462, %.lr.ph.i ]
  %79 = add i8 %.263, 1
  %80 = zext i8 %79 to i64
  %81 = getelementptr [0 x ptr], ptr %55, i64 0, i64 %80
  %82 = load ptr, ptr %81, align 8
  %.not50 = icmp eq ptr %82, null
  br i1 %.not50, label %.loopexit, label %.lr.ph, !llvm.loop !19

.loopexit:                                        ; preds = %asterix_field_exists.exit.thread, %.lr.ph66, %.lr.ph70, %54, %.preheader56, %25, %._crit_edge, %9, %3
  %.045 = phi i32 [ 0, %3 ], [ %24, %._crit_edge ], [ %11, %9 ], [ %30, %25 ], [ 0, %.preheader56 ], [ %53, %54 ], [ %36, %.lr.ph70 ], [ %45, %.lr.ph66 ], [ %.5, %asterix_field_exists.exit.thread ]
  ret i32 %.045
}